target datalayout = "e-m:e-p270:32:32-p271:32:32-p272:64:64-i64:64-i128:128-f80:128-n8:16:32:64-S128"
target triple = "x86_64-pc-linux-gnu"

%"class.std::__cxx11::basic_string" = type { %"struct.std::__cxx11::basic_string<char>::_Alloc_hider", i64, %union.anon }
%"struct.std::__cxx11::basic_string<char>::_Alloc_hider" = type { ptr }
%union.anon = type { i64, [8 x i8] }
%"class.mu::ParserBase" = type <{ ptr, { i64, i64 }, %"class.mu::ParserByteCode", %"class.std::vector.3", %"class.std::vector.3", %"class.std::unique_ptr", %"class.std::map", %"class.std::map", %"class.std::map", %"class.std::map", %"class.std::map.13", %"class.std::map.18", %"class.std::map.23", i8, [7 x i8], %"class.std::__cxx11::basic_string", %"class.std::__cxx11::basic_string", %"class.std::__cxx11::basic_string", %"class.std::vector.28", i32, [4 x i8] }>
%"class.mu::ParserByteCode" = type <{ i32, [4 x i8], i64, %"class.std::vector", i8, [7 x i8] }>
%"class.std::vector" = type { %"struct.std::_Vector_base" }
%"struct.std::_Vector_base" = type { %"struct.std::_Vector_base<mu::SToken, std::allocator<mu::SToken>>::_Vector_impl" }
%"struct.std::_Vector_base<mu::SToken, std::allocator<mu::SToken>>::_Vector_impl" = type { %"struct.std::_Vector_base<mu::SToken, std::allocator<mu::SToken>>::_Vector_impl_data" }
%"struct.std::_Vector_base<mu::SToken, std::allocator<mu::SToken>>::_Vector_impl_data" = type { ptr, ptr, ptr }
%"class.std::vector.3" = type { %"struct.std::_Vector_base.4" }
%"struct.std::_Vector_base.4" = type { %"struct.std::_Vector_base<std::__cxx11::basic_string<char>, std::allocator<std::__cxx11::basic_string<char>>>::_Vector_impl" }
%"struct.std::_Vector_base<std::__cxx11::basic_string<char>, std::allocator<std::__cxx11::basic_string<char>>>::_Vector_impl" = type { %"struct.std::_Vector_base<std::__cxx11::basic_string<char>, std::allocator<std::__cxx11::basic_string<char>>>::_Vector_impl_data" }
%"struct.std::_Vector_base<std::__cxx11::basic_string<char>, std::allocator<std::__cxx11::basic_string<char>>>::_Vector_impl_data" = type { ptr, ptr, ptr }
%"class.std::unique_ptr" = type { %"struct.std::__uniq_ptr_data" }
%"struct.std::__uniq_ptr_data" = type { %"class.std::__uniq_ptr_impl" }
%"class.std::__uniq_ptr_impl" = type { %"class.std::tuple" }
%"class.std::tuple" = type { %"struct.std::_Tuple_impl" }
%"struct.std::_Tuple_impl" = type { %"struct.std::_Head_base.9" }
%"struct.std::_Head_base.9" = type { ptr }
%"class.std::map" = type { %"class.std::_Rb_tree" }
%"class.std::_Rb_tree" = type { %"struct.std::_Rb_tree<std::__cxx11::basic_string<char>, std::pair<const std::__cxx11::basic_string<char>, mu::ParserCallback>, std::_Select1st<std::pair<const std::__cxx11::basic_string<char>, mu::ParserCallback>>, std::less<std::__cxx11::basic_string<char>>>::_Rb_tree_impl" }
%"struct.std::_Rb_tree<std::__cxx11::basic_string<char>, std::pair<const std::__cxx11::basic_string<char>, mu::ParserCallback>, std::_Select1st<std::pair<const std::__cxx11::basic_string<char>, mu::ParserCallback>>, std::less<std::__cxx11::basic_string<char>>>::_Rb_tree_impl" = type { %"struct.std::_Rb_tree_key_compare", %"struct.std::_Rb_tree_header" }
%"struct.std::_Rb_tree_key_compare" = type { %"struct.std::less" }
%"struct.std::less" = type { i8 }
%"struct.std::_Rb_tree_header" = type { %"struct.std::_Rb_tree_node_base", i64 }
%"struct.std::_Rb_tree_node_base" = type { i32, ptr, ptr, ptr }
%"class.std::map.13" = type { %"class.std::_Rb_tree.14" }
%"class.std::_Rb_tree.14" = type { %"struct.std::_Rb_tree<std::__cxx11::basic_string<char>, std::pair<const std::__cxx11::basic_string<char>, double>, std::_Select1st<std::pair<const std::__cxx11::basic_string<char>, double>>, std::less<std::__cxx11::basic_string<char>>>::_Rb_tree_impl" }
%"struct.std::_Rb_tree<std::__cxx11::basic_string<char>, std::pair<const std::__cxx11::basic_string<char>, double>, std::_Select1st<std::pair<const std::__cxx11::basic_string<char>, double>>, std::less<std::__cxx11::basic_string<char>>>::_Rb_tree_impl" = type { %"struct.std::_Rb_tree_key_compare", %"struct.std::_Rb_tree_header" }
%"class.std::map.18" = type { %"class.std::_Rb_tree.19" }
%"class.std::_Rb_tree.19" = type { %"struct.std::_Rb_tree<std::__cxx11::basic_string<char>, std::pair<const std::__cxx11::basic_string<char>, unsigned long>, std::_Select1st<std::pair<const std::__cxx11::basic_string<char>, unsigned long>>, std::less<std::__cxx11::basic_string<char>>>::_Rb_tree_impl" }
%"struct.std::_Rb_tree<std::__cxx11::basic_string<char>, std::pair<const std::__cxx11::basic_string<char>, unsigned long>, std::_Select1st<std::pair<const std::__cxx11::basic_string<char>, unsigned long>>, std::less<std::__cxx11::basic_string<char>>>::_Rb_tree_impl" = type { %"struct.std::_Rb_tree_key_compare", %"struct.std::_Rb_tree_header" }
%"class.std::map.23" = type { %"class.std::_Rb_tree.24" }
%"class.std::_Rb_tree.24" = type { %"struct.std::_Rb_tree<std::__cxx11::basic_string<char>, std::pair<const std::__cxx11::basic_string<char>, double *>, std::_Select1st<std::pair<const std::__cxx11::basic_string<char>, double *>>, std::less<std::__cxx11::basic_string<char>>>::_Rb_tree_impl" }
%"struct.std::_Rb_tree<std::__cxx11::basic_string<char>, std::pair<const std::__cxx11::basic_string<char>, double *>, std::_Select1st<std::pair<const std::__cxx11::basic_string<char>, double *>>, std::less<std::__cxx11::basic_string<char>>>::_Rb_tree_impl" = type { %"struct.std::_Rb_tree_key_compare", %"struct.std::_Rb_tree_header" }
%"class.std::vector.28" = type { %"struct.std::_Vector_base.29" }
%"struct.std::_Vector_base.29" = type { %"struct.std::_Vector_base<double, std::allocator<double>>::_Vector_impl" }
%"struct.std::_Vector_base<double, std::allocator<double>>::_Vector_impl" = type { %"struct.std::_Vector_base<double, std::allocator<double>>::_Vector_impl_data" }
%"struct.std::_Vector_base<double, std::allocator<double>>::_Vector_impl_data" = type { ptr, ptr, ptr }

@_ZTIN2mu11ParserErrorE = linkonce_odr constant { ptr, ptr } { ptr getelementptr inbounds (ptr, ptr @_ZTVN10__cxxabiv117__class_type_infoE, i64 2), ptr @_ZTSN2mu11ParserErrorE }, comdat, align 8

; Function Attrs: mustprogress nounwind uwtable
define linkonce_odr noundef nonnull align 8 dereferenceable(8) ptr @_ZNSt10_Head_baseILm0EPN2mu17ParserTokenReaderELb0EE7_M_headERKS3_(ptr noundef nonnull align 8 dereferenceable(8) %0) #0 comdat align 2 {
  %2 = alloca ptr, align 8
  store ptr %0, ptr %2, align 8
  %3 = load ptr, ptr %2, align 8
  %4 = getelementptr inbounds %"struct.std::_Head_base.9", ptr %3, i32 0, i32 0
  ret ptr %4
}

; Function Attrs: mustprogress nounwind uwtable
define linkonce_odr noundef nonnull align 8 dereferenceable(8) ptr @_ZNSt11_Tuple_implILm0EJPN2mu17ParserTokenReaderESt14default_deleteIS1_EEE7_M_headERKS5_(ptr noundef nonnull align 8 dereferenceable(8) %0) #0 comdat align 2 {
  %2 = alloca ptr, align 8
  store ptr %0, ptr %2, align 8
  %3 = load ptr, ptr %2, align 8
  %4 = call noundef nonnull align 8 dereferenceable(8) ptr @_ZNSt10_Head_baseILm0EPN2mu17ParserTokenReaderELb0EE7_M_headERKS3_(ptr noundef nonnull align 8 dereferenceable(8) %3) #4
  ret ptr %4
}

; Function Attrs: mustprogress nounwind uwtable
define linkonce_odr noundef nonnull align 8 dereferenceable(8) ptr @_ZSt12__get_helperILm0EPN2mu17ParserTokenReaderEJSt14default_deleteIS1_EEERKT0_RKSt11_Tuple_implIXT_EJS5_DpT1_EE(ptr noundef nonnull align 8 dereferenceable(8) %0) #0 comdat {
  %2 = alloca ptr, align 8
  store ptr %0, ptr %2, align 8
  %3 = load ptr, ptr %2, align 8
  %4 = call noundef nonnull align 8 dereferenceable(8) ptr @_ZNSt11_Tuple_implILm0EJPN2mu17ParserTokenReaderESt14default_deleteIS1_EEE7_M_headERKS5_(ptr noundef nonnull align 8 dereferenceable(8) %3) #4
  ret ptr %4
}

; Function Attrs: mustprogress nounwind uwtable
define linkonce_odr noundef nonnull align 8 dereferenceable(8) ptr @_ZSt3getILm0EJPN2mu17ParserTokenReaderESt14default_deleteIS1_EEERKNSt13tuple_elementIXT_ESt5tupleIJDpT0_EEE4typeERKS9_(ptr noundef nonnull align 8 dereferenceable(8) %0) #0 comdat {
  %2 = alloca ptr, align 8
  store ptr %0, ptr %2, align 8
  %3 = load ptr, ptr %2, align 8
  %4 = call noundef nonnull align 8 dereferenceable(8) ptr @_ZSt12__get_helperILm0EPN2mu17ParserTokenReaderEJSt14default_deleteIS1_EEERKT0_RKSt11_Tuple_implIXT_EJS5_DpT1_EE(ptr noundef nonnull align 8 dereferenceable(8) %3) #4
  ret ptr %4
}

; Function Attrs: mustprogress nounwind uwtable
define linkonce_odr noundef ptr @_ZNKSt15__uniq_ptr_implIN2mu17ParserTokenReaderESt14default_deleteIS1_EE6_M_ptrEv(ptr noundef nonnull align 8 dereferenceable(8) %0) #0 comdat align 2 {
  %2 = alloca ptr, align 8
  store ptr %0, ptr %2, align 8
  %3 = load ptr, ptr %2, align 8
  %4 = getelementptr inbounds %"class.std::__uniq_ptr_impl", ptr %3, i32 0, i32 0
  %5 = call noundef nonnull align 8 dereferenceable(8) ptr @_ZSt3getILm0EJPN2mu17ParserTokenReaderESt14default_deleteIS1_EEERKNSt13tuple_elementIXT_ESt5tupleIJDpT0_EEE4typeERKS9_(ptr noundef nonnull align 8 dereferenceable(8) %4) #4
  %6 = load ptr, ptr %5, align 8
  ret ptr %6
}

; Function Attrs: mustprogress nounwind uwtable
define linkonce_odr noundef ptr @_ZNKSt10unique_ptrIN2mu17ParserTokenReaderESt14default_deleteIS1_EE3getEv(ptr noundef nonnull align 8 dereferenceable(8) %0) #0 comdat align 2 {
  %2 = alloca ptr, align 8
  store ptr %0, ptr %2, align 8
  %3 = load ptr, ptr %2, align 8
  %4 = getelementptr inbounds %"class.std::unique_ptr", ptr %3, i32 0, i32 0
  %5 = call noundef ptr @_ZNKSt15__uniq_ptr_implIN2mu17ParserTokenReaderESt14default_deleteIS1_EE6_M_ptrEv(ptr noundef nonnull align 8 dereferenceable(8) %4) #4
  ret ptr %5
}

; Function Attrs: mustprogress nounwind uwtable
define linkonce_odr noundef i64 @_ZNKSt6vectorIN2mu6STokenESaIS1_EE4sizeEv(ptr noundef nonnull align 8 dereferenceable(24) %0) #0 comdat align 2 {
  %2 = alloca ptr, align 8
  store ptr %0, ptr %2, align 8
  %3 = load ptr, ptr %2, align 8
  %4 = getelementptr inbounds %"struct.std::_Vector_base", ptr %3, i32 0, i32 0
  %5 = getelementptr inbounds %"struct.std::_Vector_base<mu::SToken, std::allocator<mu::SToken>>::_Vector_impl_data", ptr %4, i32 0, i32 1
  %6 = load ptr, ptr %5, align 8
  %7 = getelementptr inbounds %"struct.std::_Vector_base", ptr %3, i32 0, i32 0
  %8 = getelementptr inbounds %"struct.std::_Vector_base<mu::SToken, std::allocator<mu::SToken>>::_Vector_impl_data", ptr %7, i32 0, i32 0
  %9 = load ptr, ptr %8, align 8
  %10 = ptrtoint ptr %6 to i64
  %11 = ptrtoint ptr %9 to i64
  %12 = sub i64 %10, %11
  %13 = sdiv exact i64 %12, 32
  ret i64 %13
}

; Function Attrs: mustprogress nounwind uwtable
define linkonce_odr noundef nonnull align 8 dereferenceable(8) ptr @_ZNSt6vectorIdSaIdEEixEm(ptr noundef nonnull align 8 dereferenceable(24) %0, i64 noundef %1) #0 comdat align 2 {
  %3 = alloca ptr, align 8
  %4 = alloca i64, align 8
  store ptr %0, ptr %3, align 8
  store i64 %1, ptr %4, align 8
  %5 = load ptr, ptr %3, align 8
  %6 = getelementptr inbounds %"struct.std::_Vector_base.29", ptr %5, i32 0, i32 0
  %7 = getelementptr inbounds %"struct.std::_Vector_base<double, std::allocator<double>>::_Vector_impl_data", ptr %6, i32 0, i32 0
  %8 = load ptr, ptr %7, align 8
  %9 = load i64, ptr %4, align 8
  %10 = getelementptr inbounds double, ptr %8, i64 %9
  ret ptr %10
}

; Function Attrs: mustprogress nounwind uwtable
define linkonce_odr noundef ptr @_ZNKSt10unique_ptrIN2mu17ParserTokenReaderESt14default_deleteIS1_EEptEv(ptr noundef nonnull align 8 dereferenceable(8) %0) #0 comdat align 2 {
  %2 = alloca ptr, align 8
  store ptr %0, ptr %2, align 8
  %3 = load ptr, ptr %2, align 8
  %4 = call noundef ptr @_ZNKSt10unique_ptrIN2mu17ParserTokenReaderESt14default_deleteIS1_EE3getEv(ptr noundef nonnull align 8 dereferenceable(8) %3) #4
  ret ptr %4
}

; Function Attrs: mustprogress nounwind uwtable
define linkonce_odr noundef i64 @_ZNK2mu14ParserByteCode7GetSizeEv(ptr noundef nonnull align 8 dereferenceable(48) %0) #0 comdat align 2 {
  %2 = alloca ptr, align 8
  store ptr %0, ptr %2, align 8
  %3 = load ptr, ptr %2, align 8
  %4 = getelementptr inbounds %"class.mu::ParserByteCode", ptr %3, i32 0, i32 3
  %5 = call noundef i64 @_ZNKSt6vectorIN2mu6STokenESaIS1_EE4sizeEv(ptr noundef nonnull align 8 dereferenceable(24) %4) #4
  ret i64 %5
}

; Function Attrs: mustprogress uwtable
define noundef double @_ZNK2mu10ParserBase11ParseStringEv(ptr noundef nonnull align 8 dereferenceable(596) %0) #6 align 2 personality ptr @__gxx_personality_v0 {
  %2 = alloca double, align 8
  %3 = alloca ptr, align 8
  %4 = alloca ptr, align 8
  %5 = alloca i32, align 4
  %6 = alloca ptr, align 8
  store ptr %0, ptr %3, align 8
  %7 = load ptr, ptr %3, align 8
  invoke void @_ZNK2mu10ParserBase9CreateRPNEv(ptr noundef nonnull align 8 dereferenceable(596) %7)
          to label %8 unwind label %27

8:                                                ; preds = %1
  %9 = getelementptr inbounds %"class.mu::ParserBase", ptr %7, i32 0, i32 2
  %10 = invoke noundef i64 @_ZNK2mu14ParserByteCode7GetSizeEv(ptr noundef nonnull align 8 dereferenceable(48) %9)
          to label %11 unwind label %27

11:                                               ; preds = %8
  %12 = icmp eq i64 %10, 2
  br i1 %12, label %13, label %55

13:                                               ; preds = %11
  %14 = getelementptr inbounds %"class.mu::ParserBase", ptr %7, i32 0, i32 1
  store { i64, i64 } { i64 ptrtoint (ptr @_ZNK2mu10ParserBase17ParseCmdCodeShortEv to i64), i64 0 }, ptr %14, align 8
  %15 = getelementptr inbounds %"class.mu::ParserBase", ptr %7, i32 0, i32 1
  %16 = load { i64, i64 }, ptr %15, align 8
  %17 = extractvalue { i64, i64 } %16, 1
  %18 = getelementptr inbounds i8, ptr %7, i64 %17
  %19 = extractvalue { i64, i64 } %16, 0
  %20 = and i64 %19, 1
  %21 = icmp ne i64 %20, 0
  br i1 %21, label %22, label %44

22:                                               ; preds = %13
  %23 = load ptr, ptr %18, align 8
  %24 = sub i64 %19, 1
  %25 = getelementptr i8, ptr %23, i64 %24, !nosanitize !5
  %26 = load ptr, ptr %25, align 8, !nosanitize !5
  br label %46

27:                                               ; preds = %71, %46, %8, %1
  %28 = landingpad { ptr, i32 }
          catch ptr @_ZTIN2mu11ParserErrorE
  %29 = extractvalue { ptr, i32 } %28, 0
  store ptr %29, ptr %4, align 8
  %30 = extractvalue { ptr, i32 } %28, 1
  store i32 %30, ptr %5, align 4
  br label %31

31:                                               ; preds = %27
  %32 = load i32, ptr %5, align 4
  %33 = call i32 @llvm.eh.typeid.for(ptr @_ZTIN2mu11ParserErrorE) #4
  %34 = icmp eq i32 %32, %33
  br i1 %34, label %35, label %83

35:                                               ; preds = %31
  %36 = load ptr, ptr %4, align 8
  %37 = call ptr @__cxa_begin_catch(ptr %36) #4
  store ptr %37, ptr %6, align 8
  %38 = load ptr, ptr %6, align 8
  %39 = getelementptr inbounds %"class.mu::ParserBase", ptr %7, i32 0, i32 5
  %40 = call noundef ptr @_ZNKSt10unique_ptrIN2mu17ParserTokenReaderESt14default_deleteIS1_EEptEv(ptr noundef nonnull align 8 dereferenceable(8) %39) #4
  %41 = invoke noundef nonnull align 8 dereferenceable(32) ptr @_ZNK2mu17ParserTokenReader7GetExprB5cxx11Ev(ptr noundef nonnull align 8 dereferenceable(400) %40)
          to label %42 unwind label %75

42:                                               ; preds = %35
  invoke void @_ZN2mu11ParserError10SetFormulaERKNSt7__cxx1112basic_stringIcSt11char_traitsIcESaIcEEE(ptr noundef nonnull align 8 dereferenceable(112) %38, ptr noundef nonnull align 8 dereferenceable(32) %41)
          to label %43 unwind label %75

43:                                               ; preds = %42
  invoke void @__cxa_rethrow() #21
          to label %91 unwind label %75

44:                                               ; preds = %13
  %45 = inttoptr i64 %19 to ptr
  br label %46

46:                                               ; preds = %44, %22
  %47 = phi ptr [ %26, %22 ], [ %45, %44 ]
  %48 = invoke noundef double %47(ptr noundef nonnull align 8 dereferenceable(596) %18)
          to label %49 unwind label %27

49:                                               ; preds = %46
  %50 = getelementptr inbounds %"class.mu::ParserBase", ptr %7, i32 0, i32 18
  %51 = call noundef nonnull align 8 dereferenceable(8) ptr @_ZNSt6vectorIdSaIdEEixEm(ptr noundef nonnull align 8 dereferenceable(24) %50, i64 noundef 1) #4
  store double %48, ptr %51, align 8
  %52 = getelementptr inbounds %"class.mu::ParserBase", ptr %7, i32 0, i32 18
  %53 = call noundef nonnull align 8 dereferenceable(8) ptr @_ZNSt6vectorIdSaIdEEixEm(ptr noundef nonnull align 8 dereferenceable(24) %52, i64 noundef 1) #4
  %54 = load double, ptr %53, align 8
  store double %54, ptr %2, align 8
  br label %81

55:                                               ; preds = %11
  %56 = getelementptr inbounds %"class.mu::ParserBase", ptr %7, i32 0, i32 1
  store { i64, i64 } { i64 ptrtoint (ptr @_ZNK2mu10ParserBase12ParseCmdCodeEv to i64), i64 0 }, ptr %56, align 8
  %57 = getelementptr inbounds %"class.mu::ParserBase", ptr %7, i32 0, i32 1
  %58 = load { i64, i64 }, ptr %57, align 8
  %59 = extractvalue { i64, i64 } %58, 1
  %60 = getelementptr inbounds i8, ptr %7, i64 %59
  %61 = extractvalue { i64, i64 } %58, 0
  %62 = and i64 %61, 1
  %63 = icmp ne i64 %62, 0
  br i1 %63, label %64, label %69

64:                                               ; preds = %55
  %65 = load ptr, ptr %60, align 8
  %66 = sub i64 %61, 1
  %67 = getelementptr i8, ptr %65, i64 %66, !nosanitize !5
  %68 = load ptr, ptr %67, align 8, !nosanitize !5
  br label %71

69:                                               ; preds = %55
  %70 = inttoptr i64 %61 to ptr
  br label %71

71:                                               ; preds = %69, %64
  %72 = phi ptr [ %68, %64 ], [ %70, %69 ]
  %73 = invoke noundef double %72(ptr noundef nonnull align 8 dereferenceable(596) %60)
          to label %74 unwind label %27

74:                                               ; preds = %71
  store double %73, ptr %2, align 8
  br label %81

75:                                               ; preds = %43, %42, %35
  %76 = landingpad { ptr, i32 }
          cleanup
  %77 = extractvalue { ptr, i32 } %76, 0
  store ptr %77, ptr %4, align 8
  %78 = extractvalue { ptr, i32 } %76, 1
  store i32 %78, ptr %5, align 4
  invoke void @__cxa_end_catch()
          to label %79 unwind label %88

79:                                               ; preds = %75
  br label %83

80:                                               ; No predecessors!
  call void @llvm.trap()
  unreachable

81:                                               ; preds = %74, %49
  %82 = load double, ptr %2, align 8
  ret double %82

83:                                               ; preds = %79, %31
  %84 = load ptr, ptr %4, align 8
  %85 = load i32, ptr %5, align 4
  %86 = insertvalue { ptr, i32 } poison, ptr %84, 0
  %87 = insertvalue { ptr, i32 } %86, i32 %85, 1
  resume { ptr, i32 } %87

88:                                               ; preds = %75
  %89 = landingpad { ptr, i32 }
          catch ptr null
  %90 = extractvalue { ptr, i32 } %89, 0
  call void @__clang_call_terminate(ptr %90) #18
  unreachable

91:                                               ; preds = %43
  unreachable
}