; Function Attrs: mustprogress uwtable
define noundef double @_ZNK2mu10ParserBase11ParseStringEv(ptr noundef nonnull align 8 dereferenceable(596) %0) #7 align 2 personality ptr @__gxx_personality_v0 {
  invoke void @_ZNK2mu10ParserBase9CreateRPNEv(ptr noundef nonnull align 8 dereferenceable(596) %0)
          to label %2 unwind label %14

2:                                                ; preds = %1
  %3 = getelementptr inbounds i8, ptr %0, i64 40
  %4 = getelementptr inbounds i8, ptr %0, i64 48
  %5 = load ptr, ptr %4, align 8
  %6 = load ptr, ptr %3, align 8
  %7 = ptrtoint ptr %5 to i64
  %8 = ptrtoint ptr %6 to i64
  %9 = sub i64 %7, %8
  %10 = icmp eq i64 %9, 64
  %11 = getelementptr inbounds i8, ptr %0, i64 8
  %.repack10 = getelementptr inbounds i8, ptr %0, i64 16
  br i1 %10, label %12, label %34

12:                                               ; preds = %2
  store i64 ptrtoint (ptr @_ZNK2mu10ParserBase17ParseCmdCodeShortEv to i64), ptr %11, align 8
  store i64 0, ptr %.repack10, align 8
  %13 = invoke noundef double @_ZNK2mu10ParserBase17ParseCmdCodeShortEv(ptr noundef nonnull align 8 dereferenceable(596) %0)
          to label %27 unwind label %14

14:                                               ; preds = %34, %12, %1
  %15 = landingpad { ptr, i32 }
          catch ptr @_ZTIN2mu11ParserErrorE
  %16 = extractvalue { ptr, i32 } %15, 1
  %17 = tail call i32 @llvm.eh.typeid.for(ptr nonnull @_ZTIN2mu11ParserErrorE) #23
  %18 = icmp eq i32 %16, %17
  br i1 %18, label %19, label %38

19:                                               ; preds = %14
  %20 = extractvalue { ptr, i32 } %15, 0
  %21 = tail call ptr @__cxa_begin_catch(ptr %20) #23
  %22 = getelementptr inbounds i8, ptr %0, i64 120
  %23 = load ptr, ptr %22, align 8
  %24 = invoke noundef nonnull align 8 dereferenceable(32) ptr @_ZNK2mu17ParserTokenReader7GetExprB5cxx11Ev(ptr noundef nonnull align 8 dereferenceable(400) %23)
          to label %25 unwind label %36

25:                                               ; preds = %19
  invoke void @_ZN2mu11ParserError10SetFormulaERKNSt7__cxx1112basic_stringIcSt11char_traitsIcESaIcEEE(ptr noundef nonnull align 8 dereferenceable(112) %21, ptr noundef nonnull align 8 dereferenceable(32) %24)
          to label %26 unwind label %36

26:                                               ; preds = %25
  invoke void @__cxa_rethrow() #32
          to label %42 unwind label %36

27:                                               ; preds = %12
  %28 = getelementptr inbounds i8, ptr %0, i64 568
  %29 = load ptr, ptr %28, align 8
  %30 = getelementptr inbounds i8, ptr %29, i64 8
  store double %13, ptr %30, align 8
  %31 = load ptr, ptr %28, align 8
  %32 = getelementptr inbounds i8, ptr %31, i64 8
  %33 = load double, ptr %32, align 8
  br label %_ZNK2mu10ParserBase12ParseCmdCodeEv.exit

34:                                               ; preds = %2
  store i64 ptrtoint (ptr @_ZNK2mu10ParserBase12ParseCmdCodeEv to i64), ptr %11, align 8
  store i64 0, ptr %.repack10, align 8
  %35 = invoke noundef double @_ZNK2mu10ParserBase16ParseCmdCodeBulkEii(ptr noundef nonnull align 8 dereferenceable(596) %0, i32 noundef 0, i32 noundef 0)
          to label %_ZNK2mu10ParserBase12ParseCmdCodeEv.exit unwind label %14

36:                                               ; preds = %26, %25, %19
  %37 = landingpad { ptr, i32 }
          cleanup
  invoke void @__cxa_end_catch()
          to label %38 unwind label %39

_ZNK2mu10ParserBase12ParseCmdCodeEv.exit:         ; preds = %34, %27
  %.0 = phi double [ %33, %27 ], [ %35, %34 ]
  ret double %.0

38:                                               ; preds = %36, %14
  %.merged = phi { ptr, i32 } [ %37, %36 ], [ %15, %14 ]
  resume { ptr, i32 } %.merged

39:                                               ; preds = %36
  %40 = landingpad { ptr, i32 }
          catch ptr null
  %41 = extractvalue { ptr, i32 } %40, 0
  tail call void @__clang_call_terminate(ptr %41) #29
  unreachable

42:                                               ; preds = %26
  unreachable
}